target datalayout = "e-m:e-p270:32:32-p271:32:32-p272:64:64-i64:64-i128:128-f80:128-n8:16:32:64-S128"
target triple = "x86_64-pc-linux-gnu"

%struct._xml_ns_t = type { ptr, ptr, i32, i32, i32, ptr, ptr, ptr }
%struct._GPtrArray = type { ptr, i32 }

; Function Attrs: null_pointer_is_valid sspstrong uwtable
define internal void @free_elements(ptr noundef %0, ptr noundef %1, ptr noundef %2) #3 {
  %4 = alloca ptr, align 8
  %5 = alloca ptr, align 8
  %6 = alloca ptr, align 8
  %7 = alloca ptr, align 8
  store ptr %0, ptr %4, align 8
  store ptr %1, ptr %5, align 8
  store ptr %2, ptr %6, align 8
  call void @llvm.lifetime.start.p0(i64 8, ptr %7) #10
  %8 = load ptr, ptr %5, align 8
  store ptr %8, ptr %7, align 8
  br label %9

9:                                                ; preds = %16, %3
  %10 = load ptr, ptr %7, align 8
  %11 = getelementptr inbounds nuw %struct._xml_ns_t, ptr %10, i32 0, i32 7
  %12 = load ptr, ptr %11, align 8
  %13 = getelementptr inbounds nuw %struct._GPtrArray, ptr %12, i32 0, i32 1
  %14 = load i32, ptr %13, align 8
  %15 = icmp ne i32 %14, 0
  br i1 %15, label %16, label %21

16:                                               ; preds = %9
  %17 = load ptr, ptr %7, align 8
  %18 = getelementptr inbounds nuw %struct._xml_ns_t, ptr %17, i32 0, i32 7
  %19 = load ptr, ptr %18, align 8
  %20 = call ptr @g_ptr_array_remove_index(ptr noundef %19, i32 noundef 0)
  call void @g_free(ptr noundef %20)
  br label %9, !llvm.loop !23

21:                                               ; preds = %9
  %22 = load ptr, ptr %7, align 8
  %23 = getelementptr inbounds nuw %struct._xml_ns_t, ptr %22, i32 0, i32 7
  %24 = load ptr, ptr %23, align 8
  %25 = call ptr @g_ptr_array_free(ptr noundef %24, i32 noundef 1)
  call void @llvm.lifetime.end.p0(i64 8, ptr %7) #10
  ret void
}