; Function Attrs: null_pointer_is_valid sspstrong uwtable
define internal void @free_elements(ptr readnone captures(none) %0, ptr noundef readonly captures(none) %1, ptr readnone captures(none) %2) #4 {
  %4 = getelementptr inbounds nuw i8, ptr %1, i64 48
  %5 = load ptr, ptr %4, align 8
  %6 = getelementptr inbounds nuw i8, ptr %5, i64 8
  %7 = load i32, ptr %6, align 8
  %.not4 = icmp eq i32 %7, 0
  br i1 %.not4, label %._crit_edge, label %.lr.ph

.lr.ph:                                           ; preds = %3, %.lr.ph
  %8 = phi ptr [ %10, %.lr.ph ], [ %5, %3 ]
  %9 = tail call ptr @g_ptr_array_remove_index(ptr noundef %8, i32 noundef 0)
  tail call void @g_free(ptr noundef %9)
  %10 = load ptr, ptr %4, align 8
  %11 = getelementptr inbounds nuw i8, ptr %10, i64 8
  %12 = load i32, ptr %11, align 8
  %.not = icmp eq i32 %12, 0
  br i1 %.not, label %._crit_edge, label %.lr.ph, !llvm.loop !11

._crit_edge:                                      ; preds = %.lr.ph, %3
  %.lcssa = phi ptr [ %5, %3 ], [ %10, %.lr.ph ]
  %13 = tail call ptr @g_ptr_array_free(ptr noundef %.lcssa, i32 noundef 1)
  ret void
}